target datalayout = "e-m:e-p270:32:32-p271:32:32-p272:64:64-i64:64-i128:128-f80:128-n8:16:32:64-S128"
target triple = "x86_64-pc-linux-gnu"

%struct.Amap_Man_t_ = type { ptr, ptr, float, float, i32, i32, ptr, ptr, ptr, ptr, ptr, ptr, ptr, ptr, [7 x i32], i32, i32, i32, ptr, ptr, ptr, ptr, ptr, ptr, ptr, ptr, i32, i32, i32, i32 }
%struct.Amap_Cut_t_ = type { i32, [0 x i32] }
%struct.Vec_Int_t_ = type { i32, i32, ptr }

; Function Attrs: inlinehint nounwind uwtable
define internal void @Vec_IntGrow(ptr noundef %0, i32 noundef %1) #3 {
  %3 = alloca ptr, align 8
  %4 = alloca i32, align 4
  store ptr %0, ptr %3, align 8, !tbaa !43
  store i32 %1, ptr %4, align 4, !tbaa !8
  %5 = load ptr, ptr %3, align 8, !tbaa !43
  %6 = getelementptr inbounds nuw %struct.Vec_Int_t_, ptr %5, i32 0, i32 0
  %7 = load i32, ptr %6, align 8, !tbaa !46
  %8 = load i32, ptr %4, align 4, !tbaa !8
  %9 = icmp sge i32 %7, %8
  br i1 %9, label %10, label %11

10:                                               ; preds = %2
  br label %36

11:                                               ; preds = %2
  %12 = load ptr, ptr %3, align 8, !tbaa !43
  %13 = getelementptr inbounds nuw %struct.Vec_Int_t_, ptr %12, i32 0, i32 2
  %14 = load ptr, ptr %13, align 8, !tbaa !47
  %15 = icmp ne ptr %14, null
  br i1 %15, label %16, label %24

16:                                               ; preds = %11
  %17 = load ptr, ptr %3, align 8, !tbaa !43
  %18 = getelementptr inbounds nuw %struct.Vec_Int_t_, ptr %17, i32 0, i32 2
  %19 = load ptr, ptr %18, align 8, !tbaa !47
  %20 = load i32, ptr %4, align 4, !tbaa !8
  %21 = sext i32 %20 to i64
  %22 = mul i64 4, %21
  %23 = call ptr @realloc(ptr noundef %19, i64 noundef %22) #13
  br label %29

24:                                               ; preds = %11
  %25 = load i32, ptr %4, align 4, !tbaa !8
  %26 = sext i32 %25 to i64
  %27 = mul i64 4, %26
  %28 = call noalias ptr @malloc(i64 noundef %27) #11
  br label %29

29:                                               ; preds = %24, %16
  %30 = phi ptr [ %23, %16 ], [ %28, %24 ]
  %31 = load ptr, ptr %3, align 8, !tbaa !43
  %32 = getelementptr inbounds nuw %struct.Vec_Int_t_, ptr %31, i32 0, i32 2
  store ptr %30, ptr %32, align 8, !tbaa !47
  %33 = load i32, ptr %4, align 4, !tbaa !8
  %34 = load ptr, ptr %3, align 8, !tbaa !43
  %35 = getelementptr inbounds nuw %struct.Vec_Int_t_, ptr %34, i32 0, i32 0
  store i32 %33, ptr %35, align 8, !tbaa !46
  br label %36

36:                                               ; preds = %29, %10
  ret void
}

; Function Attrs: inlinehint nounwind uwtable
define internal ptr @Amap_ManCutNextP(ptr noundef %0) #3 {
  %2 = alloca ptr, align 8
  store ptr %0, ptr %2, align 8, !tbaa !26
  %3 = load ptr, ptr %2, align 8, !tbaa !26
  %4 = load ptr, ptr %2, align 8, !tbaa !26
  %5 = load i32, ptr %4, align 4
  %6 = lshr i32 %5, 17
  %7 = sext i32 %6 to i64
  %8 = getelementptr inbounds i32, ptr %3, i64 %7
  %9 = getelementptr inbounds i32, ptr %8, i64 1
  ret ptr %9
}

; Function Attrs: inlinehint nounwind uwtable
define internal void @Vec_IntPushOrder(ptr noundef %0, i32 noundef %1) #3 {
  %3 = alloca ptr, align 8
  %4 = alloca i32, align 4
  %5 = alloca i32, align 4
  store ptr %0, ptr %3, align 8, !tbaa !43
  store i32 %1, ptr %4, align 4, !tbaa !8
  call void @llvm.lifetime.start.p0(i64 4, ptr %5) #10
  %6 = load ptr, ptr %3, align 8, !tbaa !43
  %7 = getelementptr inbounds nuw %struct.Vec_Int_t_, ptr %6, i32 0, i32 1
  %8 = load i32, ptr %7, align 4, !tbaa !44
  %9 = load ptr, ptr %3, align 8, !tbaa !43
  %10 = getelementptr inbounds nuw %struct.Vec_Int_t_, ptr %9, i32 0, i32 0
  %11 = load i32, ptr %10, align 8, !tbaa !46
  %12 = icmp eq i32 %8, %11
  br i1 %12, label %13, label %27

13:                                               ; preds = %2
  %14 = load ptr, ptr %3, align 8, !tbaa !43
  %15 = getelementptr inbounds nuw %struct.Vec_Int_t_, ptr %14, i32 0, i32 0
  %16 = load i32, ptr %15, align 8, !tbaa !46
  %17 = icmp slt i32 %16, 16
  br i1 %17, label %18, label %20

18:                                               ; preds = %13
  %19 = load ptr, ptr %3, align 8, !tbaa !43
  call void @Vec_IntGrow(ptr noundef %19, i32 noundef 16)
  br label %26

20:                                               ; preds = %13
  %21 = load ptr, ptr %3, align 8, !tbaa !43
  %22 = load ptr, ptr %3, align 8, !tbaa !43
  %23 = getelementptr inbounds nuw %struct.Vec_Int_t_, ptr %22, i32 0, i32 0
  %24 = load i32, ptr %23, align 8, !tbaa !46
  %25 = mul nsw i32 2, %24
  call void @Vec_IntGrow(ptr noundef %21, i32 noundef %25)
  br label %26

26:                                               ; preds = %20, %18
  br label %27

27:                                               ; preds = %26, %2
  %28 = load ptr, ptr %3, align 8, !tbaa !43
  %29 = getelementptr inbounds nuw %struct.Vec_Int_t_, ptr %28, i32 0, i32 1
  %30 = load i32, ptr %29, align 4, !tbaa !44
  %31 = add nsw i32 %30, 1
  store i32 %31, ptr %29, align 4, !tbaa !44
  %32 = load ptr, ptr %3, align 8, !tbaa !43
  %33 = getelementptr inbounds nuw %struct.Vec_Int_t_, ptr %32, i32 0, i32 1
  %34 = load i32, ptr %33, align 4, !tbaa !44
  %35 = sub nsw i32 %34, 2
  store i32 %35, ptr %5, align 4, !tbaa !8
  br label %36

36:                                               ; preds = %66, %27
  %37 = load i32, ptr %5, align 4, !tbaa !8
  %38 = icmp sge i32 %37, 0
  br i1 %38, label %39, label %69

39:                                               ; preds = %36
  %40 = load ptr, ptr %3, align 8, !tbaa !43
  %41 = getelementptr inbounds nuw %struct.Vec_Int_t_, ptr %40, i32 0, i32 2
  %42 = load ptr, ptr %41, align 8, !tbaa !47
  %43 = load i32, ptr %5, align 4, !tbaa !8
  %44 = sext i32 %43 to i64
  %45 = getelementptr inbounds i32, ptr %42, i64 %44
  %46 = load i32, ptr %45, align 4, !tbaa !8
  %47 = load i32, ptr %4, align 4, !tbaa !8
  %48 = icmp sgt i32 %46, %47
  br i1 %48, label %49, label %64

49:                                               ; preds = %39
  %50 = load ptr, ptr %3, align 8, !tbaa !43
  %51 = getelementptr inbounds nuw %struct.Vec_Int_t_, ptr %50, i32 0, i32 2
  %52 = load ptr, ptr %51, align 8, !tbaa !47
  %53 = load i32, ptr %5, align 4, !tbaa !8
  %54 = sext i32 %53 to i64
  %55 = getelementptr inbounds i32, ptr %52, i64 %54
  %56 = load i32, ptr %55, align 4, !tbaa !8
  %57 = load ptr, ptr %3, align 8, !tbaa !43
  %58 = getelementptr inbounds nuw %struct.Vec_Int_t_, ptr %57, i32 0, i32 2
  %59 = load ptr, ptr %58, align 8, !tbaa !47
  %60 = load i32, ptr %5, align 4, !tbaa !8
  %61 = add nsw i32 %60, 1
  %62 = sext i32 %61 to i64
  %63 = getelementptr inbounds i32, ptr %59, i64 %62
  store i32 %56, ptr %63, align 4, !tbaa !8
  br label %65

64:                                               ; preds = %39
  br label %69

65:                                               ; preds = %49
  br label %66

66:                                               ; preds = %65
  %67 = load i32, ptr %5, align 4, !tbaa !8
  %68 = add nsw i32 %67, -1
  store i32 %68, ptr %5, align 4, !tbaa !8
  br label %36, !llvm.loop !48

69:                                               ; preds = %64, %36
  %70 = load i32, ptr %4, align 4, !tbaa !8
  %71 = load ptr, ptr %3, align 8, !tbaa !43
  %72 = getelementptr inbounds nuw %struct.Vec_Int_t_, ptr %71, i32 0, i32 2
  %73 = load ptr, ptr %72, align 8, !tbaa !47
  %74 = load i32, ptr %5, align 4, !tbaa !8
  %75 = add nsw i32 %74, 1
  %76 = sext i32 %75 to i64
  %77 = getelementptr inbounds i32, ptr %73, i64 %76
  store i32 %70, ptr %77, align 4, !tbaa !8
  call void @llvm.lifetime.end.p0(i64 4, ptr %5) #10
  ret void
}

; Function Attrs: inlinehint nounwind uwtable
define internal i32 @Abc_Var2Lit(i32 noundef %0, i32 noundef %1) #3 {
  %3 = alloca i32, align 4
  %4 = alloca i32, align 4
  store i32 %0, ptr %3, align 4, !tbaa !8
  store i32 %1, ptr %4, align 4, !tbaa !8
  %5 = load i32, ptr %3, align 4, !tbaa !8
  %6 = load i32, ptr %3, align 4, !tbaa !8
  %7 = add nsw i32 %5, %6
  %8 = load i32, ptr %4, align 4, !tbaa !8
  %9 = add nsw i32 %7, %8
  ret i32 %9
}

; Function Attrs: nounwind uwtable
define ptr @Amap_ManCutStore(ptr noundef %0, ptr noundef %1, i32 noundef %2) #0 {
  %4 = alloca ptr, align 8
  %5 = alloca ptr, align 8
  %6 = alloca i32, align 4
  %7 = alloca ptr, align 8
  %8 = alloca i32, align 4
  %9 = alloca i32, align 4
  store ptr %0, ptr %4, align 8, !tbaa !3
  store ptr %1, ptr %5, align 8, !tbaa !26
  store i32 %2, ptr %6, align 4, !tbaa !8
  call void @llvm.lifetime.start.p0(i64 8, ptr %7) #10
  call void @llvm.lifetime.start.p0(i64 4, ptr %8) #10
  call void @llvm.lifetime.start.p0(i64 4, ptr %9) #10
  %10 = load ptr, ptr %5, align 8, !tbaa !26
  %11 = load i32, ptr %10, align 4
  %12 = lshr i32 %11, 17
  %13 = zext i32 %12 to i64
  %14 = mul i64 4, %13
  %15 = add i64 4, %14
  %16 = add i64 %15, 8
  %17 = trunc i64 %16 to i32
  store i32 %17, ptr %9, align 4, !tbaa !8
  %18 = load ptr, ptr %4, align 8, !tbaa !3
  %19 = getelementptr inbounds nuw %struct.Amap_Man_t_, ptr %18, i32 0, i32 12
  %20 = load ptr, ptr %19, align 8, !tbaa !40
  %21 = load i32, ptr %9, align 4, !tbaa !8
  %22 = call ptr @Aig_MmFlexEntryFetch(ptr noundef %20, i32 noundef %21)
  store ptr %22, ptr %7, align 8, !tbaa !26
  %23 = load ptr, ptr %5, align 8, !tbaa !26
  %24 = load i32, ptr %23, align 4
  %25 = and i32 %24, 65535
  %26 = load ptr, ptr %7, align 8, !tbaa !26
  %27 = load i32, ptr %26, align 4
  %28 = and i32 %25, 65535
  %29 = and i32 %27, -65536
  %30 = or i32 %29, %28
  store i32 %30, ptr %26, align 4
  %31 = load ptr, ptr %5, align 8, !tbaa !26
  %32 = load i32, ptr %31, align 4
  %33 = lshr i32 %32, 16
  %34 = and i32 %33, 1
  %35 = load i32, ptr %6, align 4, !tbaa !8
  %36 = xor i32 %34, %35
  %37 = load ptr, ptr %7, align 8, !tbaa !26
  %38 = load i32, ptr %37, align 4
  %39 = and i32 %36, 1
  %40 = shl i32 %39, 16
  %41 = and i32 %38, -65537
  %42 = or i32 %41, %40
  store i32 %42, ptr %37, align 4
  %43 = load ptr, ptr %5, align 8, !tbaa !26
  %44 = load i32, ptr %43, align 4
  %45 = lshr i32 %44, 17
  %46 = load ptr, ptr %7, align 8, !tbaa !26
  %47 = load i32, ptr %46, align 4
  %48 = and i32 %45, 32767
  %49 = shl i32 %48, 17
  %50 = and i32 %47, 131071
  %51 = or i32 %50, %49
  store i32 %51, ptr %46, align 4
  %52 = load ptr, ptr %7, align 8, !tbaa !26
  %53 = getelementptr inbounds nuw %struct.Amap_Cut_t_, ptr %52, i32 0, i32 1
  %54 = getelementptr inbounds [0 x i32], ptr %53, i64 0, i64 0
  %55 = load ptr, ptr %5, align 8, !tbaa !26
  %56 = getelementptr inbounds nuw %struct.Amap_Cut_t_, ptr %55, i32 0, i32 1
  %57 = getelementptr inbounds [0 x i32], ptr %56, i64 0, i64 0
  %58 = load ptr, ptr %5, align 8, !tbaa !26
  %59 = load i32, ptr %58, align 4
  %60 = lshr i32 %59, 17
  %61 = zext i32 %60 to i64
  %62 = mul i64 4, %61
  call void @llvm.memcpy.p0.p0.i64(ptr align 4 %54, ptr align 4 %57, i64 %62, i1 false)
  %63 = load ptr, ptr %7, align 8, !tbaa !26
  %64 = load i32, ptr %63, align 4
  %65 = and i32 %64, 65535
  %66 = load ptr, ptr %7, align 8, !tbaa !26
  %67 = load i32, ptr %66, align 4
  %68 = lshr i32 %67, 16
  %69 = and i32 %68, 1
  %70 = call i32 @Abc_Var2Lit(i32 noundef %65, i32 noundef %69)
  store i32 %70, ptr %8, align 4, !tbaa !8
  %71 = load ptr, ptr %4, align 8, !tbaa !3
  %72 = getelementptr inbounds nuw %struct.Amap_Man_t_, ptr %71, i32 0, i32 20
  %73 = load ptr, ptr %72, align 8, !tbaa !41
  %74 = load i32, ptr %8, align 4, !tbaa !8
  %75 = sext i32 %74 to i64
  %76 = getelementptr inbounds ptr, ptr %73, i64 %75
  %77 = load ptr, ptr %76, align 8, !tbaa !26
  %78 = icmp eq ptr %77, null
  br i1 %78, label %79, label %84

79:                                               ; preds = %3
  %80 = load ptr, ptr %4, align 8, !tbaa !3
  %81 = getelementptr inbounds nuw %struct.Amap_Man_t_, ptr %80, i32 0, i32 18
  %82 = load ptr, ptr %81, align 8, !tbaa !42
  %83 = load i32, ptr %8, align 4, !tbaa !8
  call void @Vec_IntPushOrder(ptr noundef %82, i32 noundef %83)
  br label %84

84:                                               ; preds = %79, %3
  %85 = load ptr, ptr %4, align 8, !tbaa !3
  %86 = getelementptr inbounds nuw %struct.Amap_Man_t_, ptr %85, i32 0, i32 20
  %87 = load ptr, ptr %86, align 8, !tbaa !41
  %88 = load i32, ptr %8, align 4, !tbaa !8
  %89 = sext i32 %88 to i64
  %90 = getelementptr inbounds ptr, ptr %87, i64 %89
  %91 = load ptr, ptr %90, align 8, !tbaa !26
  %92 = load ptr, ptr %7, align 8, !tbaa !26
  %93 = call ptr @Amap_ManCutNextP(ptr noundef %92)
  store ptr %91, ptr %93, align 8, !tbaa !26
  %94 = load ptr, ptr %7, align 8, !tbaa !26
  %95 = load ptr, ptr %4, align 8, !tbaa !3
  %96 = getelementptr inbounds nuw %struct.Amap_Man_t_, ptr %95, i32 0, i32 20
  %97 = load ptr, ptr %96, align 8, !tbaa !41
  %98 = load i32, ptr %8, align 4, !tbaa !8
  %99 = sext i32 %98 to i64
  %100 = getelementptr inbounds ptr, ptr %97, i64 %99
  store ptr %94, ptr %100, align 8, !tbaa !26
  %101 = load ptr, ptr %7, align 8, !tbaa !26
  call void @llvm.lifetime.end.p0(i64 4, ptr %9) #10
  call void @llvm.lifetime.end.p0(i64 4, ptr %8) #10
  call void @llvm.lifetime.end.p0(i64 8, ptr %7) #10
  ret ptr %101
}