; Function Attrs: nounwind uwtable
define noundef ptr @Amap_ManCutStore(ptr noundef readonly captures(none) %0, ptr noundef readonly captures(none) %1, i32 noundef %2) local_unnamed_addr #3 {
  %4 = load i32, ptr %1, align 4
  %5 = lshr i32 %4, 15
  %6 = and i32 %5, 131068
  %narrow = add nuw nsw i32 %6, 12
  %7 = getelementptr inbounds nuw i8, ptr %0, i64 80
  %8 = load ptr, ptr %7, align 8, !tbaa !33
  %9 = tail call ptr @Aig_MmFlexEntryFetch(ptr noundef %8, i32 noundef %narrow) #16
  %10 = load i32, ptr %1, align 4
  %11 = and i32 %10, 65535
  %12 = load i32, ptr %9, align 4
  %13 = and i32 %12, -65536
  %14 = or disjoint i32 %13, %11
  store i32 %14, ptr %9, align 4
  %15 = load i32, ptr %1, align 4
  %16 = shl i32 %2, 16
  %17 = xor i32 %15, %16
  %18 = and i32 %17, 65536
  %19 = and i32 %14, -65537
  %20 = or disjoint i32 %18, %19
  store i32 %20, ptr %9, align 4
  %21 = load i32, ptr %1, align 4
  %22 = and i32 %21, -131072
  %23 = or disjoint i32 %11, %22
  %24 = or disjoint i32 %23, %18
  store i32 %24, ptr %9, align 4
  %25 = getelementptr inbounds nuw i8, ptr %9, i64 4
  %26 = getelementptr inbounds nuw i8, ptr %1, i64 4
  %27 = load i32, ptr %1, align 4
  %28 = lshr i32 %27, 15
  %29 = and i32 %28, 131068
  %30 = zext nneg i32 %29 to i64
  tail call void @llvm.memcpy.p0.p0.i64(ptr nonnull align 4 %25, ptr nonnull align 4 %26, i64 %30, i1 false)
  %31 = lshr i32 %17, 16
  %32 = and i32 %31, 1
  %33 = shl nuw nsw i32 %11, 1
  %34 = or disjoint i32 %32, %33
  %35 = getelementptr inbounds nuw i8, ptr %0, i64 152
  %36 = load ptr, ptr %35, align 8, !tbaa !34
  %37 = zext nneg i32 %34 to i64
  %38 = getelementptr inbounds nuw ptr, ptr %36, i64 %37
  %39 = load ptr, ptr %38, align 8, !tbaa !35
  %40 = icmp eq ptr %39, null
  br i1 %40, label %41, label %86

41:                                               ; preds = %3
  %42 = getelementptr inbounds nuw i8, ptr %0, i64 136
  %43 = load ptr, ptr %42, align 8, !tbaa !36
  %44 = getelementptr inbounds nuw i8, ptr %43, i64 4
  %45 = load i32, ptr %44, align 4, !tbaa !37
  %46 = load i32, ptr %43, align 8, !tbaa !39
  %47 = icmp eq i32 %45, %46
  br i1 %47, label %48, label %.Vec_IntGrow.exit23.i_crit_edge

.Vec_IntGrow.exit23.i_crit_edge:                  ; preds = %41
  %.phi.trans.insert = getelementptr inbounds nuw i8, ptr %43, i64 8
  %.pre = load ptr, ptr %.phi.trans.insert, align 8, !tbaa !40
  br label %Vec_IntGrow.exit23.i

48:                                               ; preds = %41
  %49 = icmp slt i32 %45, 16
  br i1 %49, label %50, label %58

50:                                               ; preds = %48
  %51 = getelementptr inbounds nuw i8, ptr %43, i64 8
  %52 = load ptr, ptr %51, align 8, !tbaa !40
  %.not9.i.i = icmp eq ptr %52, null
  br i1 %.not9.i.i, label %55, label %53

53:                                               ; preds = %50
  %54 = tail call dereferenceable_or_null(64) ptr @realloc(ptr noundef nonnull %52, i64 noundef 64) #17
  br label %Vec_IntGrow.exit.i

55:                                               ; preds = %50
  %56 = tail call noalias dereferenceable_or_null(64) ptr @malloc(i64 noundef 64) #15
  br label %Vec_IntGrow.exit.i

Vec_IntGrow.exit.i:                               ; preds = %55, %53
  %57 = phi ptr [ %54, %53 ], [ %56, %55 ]
  store ptr %57, ptr %51, align 8, !tbaa !40
  br label %Vec_IntGrow.exit23thread-pre-split.i

58:                                               ; preds = %48
  %59 = shl nuw nsw i32 %45, 1
  %60 = getelementptr inbounds nuw i8, ptr %43, i64 8
  %61 = load ptr, ptr %60, align 8, !tbaa !40
  %.not9.i22.i = icmp eq ptr %61, null
  %62 = zext nneg i32 %59 to i64
  %63 = shl nuw nsw i64 %62, 2
  br i1 %.not9.i22.i, label %66, label %64

64:                                               ; preds = %58
  %65 = tail call ptr @realloc(ptr noundef nonnull %61, i64 noundef %63) #17
  br label %68

66:                                               ; preds = %58
  %67 = tail call noalias ptr @malloc(i64 noundef %63) #15
  br label %68

68:                                               ; preds = %66, %64
  %69 = phi ptr [ %65, %64 ], [ %67, %66 ]
  store ptr %69, ptr %60, align 8, !tbaa !40
  br label %Vec_IntGrow.exit23thread-pre-split.i

Vec_IntGrow.exit23thread-pre-split.i:             ; preds = %68, %Vec_IntGrow.exit.i
  %70 = phi ptr [ %57, %Vec_IntGrow.exit.i ], [ %69, %68 ]
  %.sink.i = phi i32 [ 16, %Vec_IntGrow.exit.i ], [ %59, %68 ]
  store i32 %.sink.i, ptr %43, align 8, !tbaa !39
  %.pr.i = load i32, ptr %44, align 4, !tbaa !37
  br label %Vec_IntGrow.exit23.i

Vec_IntGrow.exit23.i:                             ; preds = %.Vec_IntGrow.exit23.i_crit_edge, %Vec_IntGrow.exit23thread-pre-split.i
  %71 = phi ptr [ %70, %Vec_IntGrow.exit23thread-pre-split.i ], [ %.pre, %.Vec_IntGrow.exit23.i_crit_edge ]
  %72 = phi i32 [ %.pr.i, %Vec_IntGrow.exit23thread-pre-split.i ], [ %45, %.Vec_IntGrow.exit23.i_crit_edge ]
  %73 = add nsw i32 %72, 1
  store i32 %73, ptr %44, align 4, !tbaa !37
  %74 = icmp sgt i32 %72, 0
  br i1 %74, label %.lr.ph.i, label %Vec_IntPushOrder.exit

.lr.ph.i:                                         ; preds = %Vec_IntGrow.exit23.i
  %75 = zext nneg i32 %72 to i64
  br label %76

76:                                               ; preds = %80, %.lr.ph.i
  %indvars.iv.i = phi i64 [ %75, %.lr.ph.i ], [ %indvars.iv.next.i, %80 ]
  %indvars.iv.next.i = add nsw i64 %indvars.iv.i, -1
  %77 = getelementptr inbounds nuw i32, ptr %71, i64 %indvars.iv.next.i
  %78 = load i32, ptr %77, align 4, !tbaa !3
  %79 = icmp sgt i32 %78, %34
  br i1 %79, label %80, label %._crit_edge.loopexit.split.loop.exit.i

80:                                               ; preds = %76
  %81 = getelementptr inbounds nuw i32, ptr %71, i64 %indvars.iv.i
  store i32 %78, ptr %81, align 4, !tbaa !3
  %82 = icmp samesign ugt i64 %indvars.iv.i, 1
  br i1 %82, label %76, label %Vec_IntPushOrder.exit, !llvm.loop !41

._crit_edge.loopexit.split.loop.exit.i:           ; preds = %76
  %83 = trunc nuw nsw i64 %indvars.iv.i to i32
  br label %Vec_IntPushOrder.exit

Vec_IntPushOrder.exit:                            ; preds = %80, %Vec_IntGrow.exit23.i, %._crit_edge.loopexit.split.loop.exit.i
  %.0.in.lcssa.i = phi i32 [ %72, %Vec_IntGrow.exit23.i ], [ %83, %._crit_edge.loopexit.split.loop.exit.i ], [ 0, %80 ]
  %84 = sext i32 %.0.in.lcssa.i to i64
  %85 = getelementptr inbounds i32, ptr %71, i64 %84
  store i32 %34, ptr %85, align 4, !tbaa !3
  %.pre27 = load ptr, ptr %35, align 8, !tbaa !34
  %.phi.trans.insert28 = getelementptr inbounds nuw ptr, ptr %.pre27, i64 %37
  %.pre29 = load ptr, ptr %.phi.trans.insert28, align 8, !tbaa !35
  %.pre30 = load i32, ptr %9, align 4
  br label %86

86:                                               ; preds = %Vec_IntPushOrder.exit, %3
  %87 = phi i32 [ %.pre30, %Vec_IntPushOrder.exit ], [ %24, %3 ]
  %88 = phi ptr [ %.pre29, %Vec_IntPushOrder.exit ], [ %39, %3 ]
  %89 = phi ptr [ %.pre27, %Vec_IntPushOrder.exit ], [ %36, %3 ]
  %90 = getelementptr inbounds nuw ptr, ptr %89, i64 %37
  %91 = lshr i32 %87, 17
  %92 = zext nneg i32 %91 to i64
  %93 = getelementptr inbounds nuw i32, ptr %9, i64 %92
  %94 = getelementptr inbounds nuw i8, ptr %93, i64 4
  store ptr %88, ptr %94, align 8, !tbaa !35
  store ptr %9, ptr %90, align 8, !tbaa !35
  ret ptr %9
}